ccopy_reg
_reconstructor
p0
(csklearn.feature_extraction.text
TfidfVectorizer
p1
c__builtin__
object
p2
Ntp3
Rp4
(dp5
S'decode_error'
p6
Vstrict
p7
sS'lowercase'
p8
I01
sS'stop_words'
p9
S'english'
p10
sS'tokenizer'
p11
c__main__
tokenize
p12
sS'vocabulary'
p13
NsS'encoding'
p14
S'latin-1'
p15
sS'token_pattern'
p16
V(?u)\u005cb\u005cw\u005cw+\u005cb
p17
sS'max_df'
p18
F1.0
sS'analyzer'
p19
Vword
p20
sS'binary'
p21
I01
sS'ngram_range'
p22
(I1
I1
tp23
sS'_sklearn_version'
p24
S'0.18.1'
p25
sS'preprocessor'
p26
NsS'min_df'
p27
I1
sS'max_features'
p28
NsS'input'
p29
Vcontent
p30
sS'_tfidf'
p31
g0
(csklearn.feature_extraction.text
TfidfTransformer
p32
g2
Ntp33
Rp34
(dp35
S'use_idf'
p36
I01
sS'smooth_idf'
p37
I01
sg24
g25
sS'sublinear_tf'
p38
I01
sS'norm'
p39
Vl2
p40
sbsS'dtype'
p41
cnumpy
int64
p42
sS'strip_accents'
p43
Nsb.